; Function Attrs: mustprogress nofree norecurse nosync nounwind memory(read, argmem: readwrite, inaccessiblemem: none) uwtable
define noundef zeroext i1 @_ZN5Gluco10SimpSolver5mergeERKNS_6ClauseES3_iRi(ptr nocapture noundef nonnull align 8 dereferenceable(1484) %0, ptr nocapture noundef nonnull readonly align 4 dereferenceable(12) %1, ptr nocapture noundef nonnull readonly align 4 dereferenceable(12) %2, i32 noundef %3, ptr nocapture noundef nonnull writeonly align 4 dereferenceable(4) %4) local_unnamed_addr #8 align 2 {
  %6 = getelementptr inbounds i8, ptr %0, i64 1244
  %7 = load i32, ptr %6, align 4
  %8 = add nsw i32 %7, 1
  store i32 %8, ptr %6, align 4
  %9 = load i96, ptr %1, align 4
  %10 = lshr i96 %9, 32
  %11 = trunc i96 %10 to i32
  %12 = load i96, ptr %2, align 4
  %13 = lshr i96 %12, 32
  %14 = trunc i96 %13 to i32
  %15 = icmp slt i32 %11, %14
  %16 = select i1 %15, i96 %12, i96 %9
  %17 = select i1 %15, ptr %2, ptr %1
  %18 = select i1 %15, ptr %1, ptr %2
  %19 = getelementptr inbounds i8, ptr %17, i64 12
  %20 = getelementptr inbounds i8, ptr %18, i64 12
  %21 = lshr i96 %16, 32
  %22 = trunc i96 %21 to i32
  %23 = add nsw i32 %22, -1
  store i32 %23, ptr %4, align 4
  %24 = load i96, ptr %18, align 4
  %25 = lshr i96 %24, 32
  %26 = trunc i96 %25 to i32
  %27 = icmp slt i32 %26, 1
  br i1 %27, label %._crit_edge41, label %.lr.ph40.preheader

.lr.ph40.preheader:                               ; preds = %5
  %extract53 = lshr i96 %24, 32
  %extract.t54 = trunc i96 %extract53 to i32
  br label %.lr.ph40

.lr.ph40:                                         ; preds = %.lr.ph40.preheader, %44
  %.off3252 = phi i32 [ %extract.t54, %.lr.ph40.preheader ], [ %.off32, %44 ]
  %28 = phi i32 [ %23, %.lr.ph40.preheader ], [ %45, %44 ]
  %indvars.iv46 = phi i64 [ 0, %.lr.ph40.preheader ], [ %indvars.iv.next47, %44 ]
  %29 = getelementptr inbounds %"struct.Gluco::Lit", ptr %20, i64 %indvars.iv46
  %.sroa.07.0.copyload = load i32, ptr %29, align 4
  %30 = ashr i32 %.sroa.07.0.copyload, 1
  %.not = icmp eq i32 %30, %3
  br i1 %.not, label %44, label %.preheader

.preheader:                                       ; preds = %.lr.ph40
  %31 = load i96, ptr %17, align 4
  %32 = lshr i96 %31, 32
  %33 = trunc i96 %32 to i32
  %34 = icmp sgt i32 %33, 0
  br i1 %34, label %.lr.ph.preheader, label %._crit_edge

.lr.ph.preheader:                                 ; preds = %.preheader
  %35 = trunc i96 %32 to i64
  %wide.trip.count = and i64 %35, 2147483647
  br label %.lr.ph

36:                                               ; preds = %.lr.ph
  %indvars.iv.next = add nuw nsw i64 %indvars.iv, 1
  %exitcond.not = icmp eq i64 %indvars.iv.next, %wide.trip.count
  br i1 %exitcond.not, label %._crit_edge, label %.lr.ph, !llvm.loop !30

.lr.ph:                                           ; preds = %.lr.ph.preheader, %36
  %indvars.iv = phi i64 [ 0, %.lr.ph.preheader ], [ %indvars.iv.next, %36 ]
  %37 = getelementptr inbounds %"struct.Gluco::Lit", ptr %19, i64 %indvars.iv
  %.sroa.03.0.copyload = load i32, ptr %37, align 4
  %38 = ashr i32 %.sroa.03.0.copyload, 1
  %39 = icmp eq i32 %38, %30
  br i1 %39, label %40, label %36

40:                                               ; preds = %.lr.ph
  %41 = xor i32 %.sroa.03.0.copyload, %.sroa.07.0.copyload
  %42 = icmp eq i32 %41, 1
  br i1 %42, label %._crit_edge41, label %44

._crit_edge:                                      ; preds = %36, %.preheader
  %43 = add nsw i32 %28, 1
  store i32 %43, ptr %4, align 4
  %.pre = load i96, ptr %18, align 4
  %extract48 = lshr i96 %.pre, 32
  %extract.t49 = trunc i96 %extract48 to i32
  br label %44

44:                                               ; preds = %40, %._crit_edge, %.lr.ph40
  %.off32 = phi i32 [ %.off3252, %40 ], [ %extract.t49, %._crit_edge ], [ %.off3252, %.lr.ph40 ]
  %45 = phi i32 [ %28, %40 ], [ %43, %._crit_edge ], [ %28, %.lr.ph40 ]
  %indvars.iv.next47 = add nuw nsw i64 %indvars.iv46, 1
  %46 = sext i32 %.off32 to i64
  %.not57 = icmp slt i64 %indvars.iv.next47, %46
  br i1 %.not57, label %.lr.ph40, label %._crit_edge41, !llvm.loop !31

._crit_edge41:                                    ; preds = %40, %44, %5
  %.lcssa = phi i1 [ true, %5 ], [ true, %44 ], [ false, %40 ]
  ret i1 %.lcssa
}